; Function Attrs: mustprogress uwtable
define internal fastcc noundef zeroext i1 @_ZN4leanL25has_loose_bvars_in_domainERKNS_4exprEjb(ptr noundef nonnull align 8 dereferenceable(8) %0, i32 noundef %1, i1 noundef zeroext %2) unnamed_addr #0 {
  %4 = load ptr, ptr %0, align 8, !tbaa !10
  %5 = getelementptr i8, ptr %4, i64 4
  %.val.i.i.i.i17 = load i32, ptr %5, align 4
  %.mask.i18 = and i32 %.val.i.i.i.i17, -16777216
  %6 = icmp eq i32 %.mask.i18, 117440512
  br i1 %6, label %.lr.ph, label %tailrecurse._crit_edge

.lr.ph:                                           ; preds = %3, %tailrecurse
  %7 = phi ptr [ %32, %tailrecurse ], [ %4, %3 ]
  %.tr1320 = phi i32 [ %31, %tailrecurse ], [ %1, %3 ]
  %.tr19 = phi ptr [ %30, %tailrecurse ], [ %0, %3 ]
  %8 = getelementptr inbounds nuw i8, ptr %7, i64 16
  %9 = tail call noundef zeroext i1 @_ZN4lean14has_loose_bvarERKNS_4exprEj(ptr noundef nonnull align 8 dereferenceable(8) %8, i32 noundef %.tr1320)
  br i1 %9, label %10, label %tailrecurse

10:                                               ; preds = %.lr.ph
  %11 = load ptr, ptr %.tr19, align 8, !tbaa !10
  %12 = ptrtoint ptr %11 to i64
  %13 = and i64 %12, 1
  %.not.i.i.i = icmp eq i64 %13, 0
  br i1 %.not.i.i.i, label %14, label %_ZN4lean12binding_infoERKNS_4exprE.exit

14:                                               ; preds = %10
  %.val.i.i.i.i12 = load i32, ptr %11, align 4, !tbaa !21
  %15 = icmp sgt i32 %.val.i.i.i.i12, 0
  br i1 %15, label %16, label %18, !prof !24

16:                                               ; preds = %14
  %17 = add nuw nsw i32 %.val.i.i.i.i12, 1
  store i32 %17, ptr %11, align 4, !tbaa !21
  br label %_ZN4lean12binding_infoERKNS_4exprE.exit

18:                                               ; preds = %14
  %.not.i.i.i.i = icmp eq i32 %.val.i.i.i.i12, 0
  br i1 %.not.i.i.i.i, label %_ZN4lean12binding_infoERKNS_4exprE.exit, label %19

19:                                               ; preds = %18
  tail call void @lean_inc_ref_cold(ptr noundef nonnull %11)
  %.pre.i.i = load ptr, ptr %.tr19, align 8, !tbaa !10
  br label %_ZN4lean12binding_infoERKNS_4exprE.exit

_ZN4lean12binding_infoERKNS_4exprE.exit:          ; preds = %10, %16, %18, %19
  %20 = phi ptr [ %11, %10 ], [ %11, %16 ], [ %11, %18 ], [ %.pre.i.i, %19 ]
  %21 = tail call zeroext i8 @lean_expr_binder_info(ptr noundef %20)
  %22 = zext i8 %21 to i32
  %23 = add nsw i32 %22, -4
  %24 = icmp ult i32 %23, -3
  br i1 %24, label %.loopexit, label %25

25:                                               ; preds = %_ZN4lean12binding_infoERKNS_4exprE.exit
  %26 = load ptr, ptr %.tr19, align 8, !tbaa !10
  %27 = getelementptr inbounds nuw i8, ptr %26, i64 24
  %28 = tail call fastcc noundef zeroext i1 @_ZN4leanL25has_loose_bvars_in_domainERKNS_4exprEjb(ptr noundef nonnull align 8 dereferenceable(8) %27, i32 noundef 0, i1 noundef zeroext %2)
  br i1 %28, label %.loopexit, label %tailrecurse

tailrecurse:                                      ; preds = %25, %.lr.ph
  %29 = load ptr, ptr %.tr19, align 8, !tbaa !10
  %30 = getelementptr inbounds nuw i8, ptr %29, i64 24
  %31 = add i32 %.tr1320, 1
  %32 = load ptr, ptr %30, align 8, !tbaa !10
  %33 = getelementptr i8, ptr %32, i64 4
  %.val.i.i.i.i = load i32, ptr %33, align 4
  %.mask.i = and i32 %.val.i.i.i.i, -16777216
  %34 = icmp eq i32 %.mask.i, 117440512
  br i1 %34, label %.lr.ph, label %tailrecurse._crit_edge

tailrecurse._crit_edge:                           ; preds = %tailrecurse, %3
  %.tr.lcssa = phi ptr [ %0, %3 ], [ %30, %tailrecurse ]
  %.tr13.lcssa = phi i32 [ %1, %3 ], [ %31, %tailrecurse ]
  br i1 %2, label %.loopexit, label %35

35:                                               ; preds = %tailrecurse._crit_edge
  %36 = tail call noundef zeroext i1 @_ZN4lean14has_loose_bvarERKNS_4exprEj(ptr noundef nonnull align 8 dereferenceable(8) %.tr.lcssa, i32 noundef %.tr13.lcssa)
  br label %.loopexit

.loopexit:                                        ; preds = %25, %_ZN4lean12binding_infoERKNS_4exprE.exit, %tailrecurse._crit_edge, %35
  %.0 = phi i1 [ %36, %35 ], [ false, %tailrecurse._crit_edge ], [ true, %_ZN4lean12binding_infoERKNS_4exprE.exit ], [ true, %25 ]
  ret i1 %.0
}